target datalayout = "e-m:e-p270:32:32-p271:32:32-p272:64:64-i64:64-i128:128-f80:128-n8:16:32:64-S128"
target triple = "x86_64-pc-linux-gnu"

%struct.AVFilterContext = type { ptr, ptr, ptr, ptr, ptr, i32, ptr, ptr, i32, ptr, ptr, i32, i32, ptr, ptr, ptr, ptr, i32, ptr, i32, i32 }
%struct.ColorCorrectContext = type { ptr, float, float, float, float, float, i32, i32, float, float, i32, i32, [4 x i32], [4 x i32], ptr, ptr, ptr, ptr, ptr }
%struct.AVChannelLayout = type { i32, i32, %union.anon.1, ptr }
%union.anon.1 = type { i64 }
%struct.AVRational = type { i32, i32 }
%struct.AVFrame = type { [8 x ptr], [8 x i32], ptr, i32, i32, i32, i32, i32, %struct.AVRational, i64, i64, %struct.AVRational, i32, ptr, i32, i32, [8 x ptr], ptr, i32, ptr, i32, i32, i32, i32, i32, i32, i32, i64, ptr, i32, ptr, ptr, i64, i64, i64, i64, ptr, %struct.AVChannelLayout, i64 }

; Function Attrs: nounwind uwtable
define internal i32 @average_slice16(ptr noundef %0, ptr noundef %1, i32 noundef %2, i32 noundef %3) #2 {
  %5 = alloca ptr, align 8
  %6 = alloca ptr, align 8
  %7 = alloca i32, align 4
  %8 = alloca i32, align 4
  %9 = alloca ptr, align 8
  %10 = alloca ptr, align 8
  %11 = alloca float, align 4
  %12 = alloca i32, align 4
  %13 = alloca i32, align 4
  %14 = alloca i32, align 4
  %15 = alloca i32, align 4
  %16 = alloca i64, align 8
  %17 = alloca i64, align 8
  %18 = alloca ptr, align 8
  %19 = alloca ptr, align 8
  %20 = alloca i64, align 8
  %21 = alloca i64, align 8
  %22 = alloca i32, align 4
  %23 = alloca i32, align 4
  %24 = alloca i32, align 4
  store ptr %0, ptr %5, align 8, !tbaa !4
  store ptr %1, ptr %6, align 8, !tbaa !71
  store i32 %2, ptr %7, align 4, !tbaa !41
  store i32 %3, ptr %8, align 4, !tbaa !41
  call void @llvm.lifetime.start.p0(i64 8, ptr %9) #9
  %25 = load ptr, ptr %5, align 8, !tbaa !4
  %26 = getelementptr inbounds nuw %struct.AVFilterContext, ptr %25, i32 0, i32 9
  %27 = load ptr, ptr %26, align 8, !tbaa !9
  store ptr %27, ptr %9, align 8, !tbaa !22
  call void @llvm.lifetime.start.p0(i64 8, ptr %10) #9
  %28 = load ptr, ptr %6, align 8, !tbaa !71
  store ptr %28, ptr %10, align 8, !tbaa !26
  call void @llvm.lifetime.start.p0(i64 4, ptr %11) #9
  %29 = load ptr, ptr %9, align 8, !tbaa !22
  %30 = getelementptr inbounds nuw %struct.ColorCorrectContext, ptr %29, i32 0, i32 9
  %31 = load float, ptr %30, align 8, !tbaa !60
  store float %31, ptr %11, align 4, !tbaa !42
  call void @llvm.lifetime.start.p0(i64 4, ptr %12) #9
  %32 = load ptr, ptr %9, align 8, !tbaa !22
  %33 = getelementptr inbounds nuw %struct.ColorCorrectContext, ptr %32, i32 0, i32 13
  %34 = getelementptr inbounds [4 x i32], ptr %33, i64 0, i64 1
  %35 = load i32, ptr %34, align 4, !tbaa !41
  store i32 %35, ptr %12, align 4, !tbaa !41
  call void @llvm.lifetime.start.p0(i64 4, ptr %13) #9
  %36 = load ptr, ptr %9, align 8, !tbaa !22
  %37 = getelementptr inbounds nuw %struct.ColorCorrectContext, ptr %36, i32 0, i32 12
  %38 = getelementptr inbounds [4 x i32], ptr %37, i64 0, i64 1
  %39 = load i32, ptr %38, align 4, !tbaa !41
  store i32 %39, ptr %13, align 4, !tbaa !41
  call void @llvm.lifetime.start.p0(i64 4, ptr %14) #9
  %40 = load i32, ptr %13, align 4, !tbaa !41
  %41 = load i32, ptr %7, align 4, !tbaa !41
  %42 = mul nsw i32 %40, %41
  %43 = load i32, ptr %8, align 4, !tbaa !41
  %44 = sdiv i32 %42, %43
  store i32 %44, ptr %14, align 4, !tbaa !41
  call void @llvm.lifetime.start.p0(i64 4, ptr %15) #9
  %45 = load i32, ptr %13, align 4, !tbaa !41
  %46 = load i32, ptr %7, align 4, !tbaa !41
  %47 = add nsw i32 %46, 1
  %48 = mul nsw i32 %45, %47
  %49 = load i32, ptr %8, align 4, !tbaa !41
  %50 = sdiv i32 %48, %49
  store i32 %50, ptr %15, align 4, !tbaa !41
  call void @llvm.lifetime.start.p0(i64 8, ptr %16) #9
  %51 = load ptr, ptr %10, align 8, !tbaa !26
  %52 = getelementptr inbounds nuw %struct.AVFrame, ptr %51, i32 0, i32 1
  %53 = getelementptr inbounds [8 x i32], ptr %52, i64 0, i64 1
  %54 = load i32, ptr %53, align 4, !tbaa !41
  %55 = sdiv i32 %54, 2
  %56 = sext i32 %55 to i64
  store i64 %56, ptr %16, align 8, !tbaa !72
  call void @llvm.lifetime.start.p0(i64 8, ptr %17) #9
  %57 = load ptr, ptr %10, align 8, !tbaa !26
  %58 = getelementptr inbounds nuw %struct.AVFrame, ptr %57, i32 0, i32 1
  %59 = getelementptr inbounds [8 x i32], ptr %58, i64 0, i64 2
  %60 = load i32, ptr %59, align 8, !tbaa !41
  %61 = sdiv i32 %60, 2
  %62 = sext i32 %61 to i64
  store i64 %62, ptr %17, align 8, !tbaa !72
  call void @llvm.lifetime.start.p0(i64 8, ptr %18) #9
  %63 = load ptr, ptr %10, align 8, !tbaa !26
  %64 = getelementptr inbounds nuw %struct.AVFrame, ptr %63, i32 0, i32 0
  %65 = getelementptr inbounds [8 x ptr], ptr %64, i64 0, i64 1
  %66 = load ptr, ptr %65, align 8, !tbaa !73
  %67 = load i32, ptr %14, align 4, !tbaa !41
  %68 = sext i32 %67 to i64
  %69 = load i64, ptr %16, align 8, !tbaa !72
  %70 = mul nsw i64 %68, %69
  %71 = getelementptr inbounds i16, ptr %66, i64 %70
  store ptr %71, ptr %18, align 8, !tbaa !78
  call void @llvm.lifetime.start.p0(i64 8, ptr %19) #9
  %72 = load ptr, ptr %10, align 8, !tbaa !26
  %73 = getelementptr inbounds nuw %struct.AVFrame, ptr %72, i32 0, i32 0
  %74 = getelementptr inbounds [8 x ptr], ptr %73, i64 0, i64 2
  %75 = load ptr, ptr %74, align 8, !tbaa !73
  %76 = load i32, ptr %14, align 4, !tbaa !41
  %77 = sext i32 %76 to i64
  %78 = load i64, ptr %17, align 8, !tbaa !72
  %79 = mul nsw i64 %77, %78
  %80 = getelementptr inbounds i16, ptr %75, i64 %79
  store ptr %80, ptr %19, align 8, !tbaa !78
  call void @llvm.lifetime.start.p0(i64 8, ptr %20) #9
  store i64 0, ptr %20, align 8, !tbaa !72
  call void @llvm.lifetime.start.p0(i64 8, ptr %21) #9
  store i64 0, ptr %21, align 8, !tbaa !72
  call void @llvm.lifetime.start.p0(i64 4, ptr %22) #9
  %81 = load i32, ptr %14, align 4, !tbaa !41
  store i32 %81, ptr %22, align 4, !tbaa !41
  br label %82

82:                                               ; preds = %120, %4
  %83 = load i32, ptr %22, align 4, !tbaa !41
  %84 = load i32, ptr %15, align 4, !tbaa !41
  %85 = icmp slt i32 %83, %84
  br i1 %85, label %87, label %86

86:                                               ; preds = %82
  store i32 2, ptr %23, align 4
  call void @llvm.lifetime.end.p0(i64 4, ptr %22) #9
  br label %123

87:                                               ; preds = %82
  call void @llvm.lifetime.start.p0(i64 4, ptr %24) #9
  store i32 0, ptr %24, align 4, !tbaa !41
  br label %88

88:                                               ; preds = %110, %87
  %89 = load i32, ptr %24, align 4, !tbaa !41
  %90 = load i32, ptr %12, align 4, !tbaa !41
  %91 = icmp slt i32 %89, %90
  br i1 %91, label %93, label %92

92:                                               ; preds = %88
  store i32 5, ptr %23, align 4
  call void @llvm.lifetime.end.p0(i64 4, ptr %24) #9
  br label %113

93:                                               ; preds = %88
  %94 = load ptr, ptr %18, align 8, !tbaa !78
  %95 = load i32, ptr %24, align 4, !tbaa !41
  %96 = sext i32 %95 to i64
  %97 = getelementptr inbounds i16, ptr %94, i64 %96
  %98 = load i16, ptr %97, align 2, !tbaa !80
  %99 = zext i16 %98 to i64
  %100 = load i64, ptr %20, align 8, !tbaa !72
  %101 = add nsw i64 %100, %99
  store i64 %101, ptr %20, align 8, !tbaa !72
  %102 = load ptr, ptr %19, align 8, !tbaa !78
  %103 = load i32, ptr %24, align 4, !tbaa !41
  %104 = sext i32 %103 to i64
  %105 = getelementptr inbounds i16, ptr %102, i64 %104
  %106 = load i16, ptr %105, align 2, !tbaa !80
  %107 = zext i16 %106 to i64
  %108 = load i64, ptr %21, align 8, !tbaa !72
  %109 = add nsw i64 %108, %107
  store i64 %109, ptr %21, align 8, !tbaa !72
  br label %110

110:                                              ; preds = %93
  %111 = load i32, ptr %24, align 4, !tbaa !41
  %112 = add nsw i32 %111, 1
  store i32 %112, ptr %24, align 4, !tbaa !41
  br label %88, !llvm.loop !86

113:                                              ; preds = %92
  %114 = load i64, ptr %16, align 8, !tbaa !72
  %115 = load ptr, ptr %18, align 8, !tbaa !78
  %116 = getelementptr inbounds i16, ptr %115, i64 %114
  store ptr %116, ptr %18, align 8, !tbaa !78
  %117 = load i64, ptr %17, align 8, !tbaa !72
  %118 = load ptr, ptr %19, align 8, !tbaa !78
  %119 = getelementptr inbounds i16, ptr %118, i64 %117
  store ptr %119, ptr %19, align 8, !tbaa !78
  br label %120

120:                                              ; preds = %113
  %121 = load i32, ptr %22, align 4, !tbaa !41
  %122 = add nsw i32 %121, 1
  store i32 %122, ptr %22, align 4, !tbaa !41
  br label %82, !llvm.loop !87

123:                                              ; preds = %86
  %124 = load float, ptr %11, align 4, !tbaa !42
  %125 = load i64, ptr %20, align 8, !tbaa !72
  %126 = sitofp i64 %125 to float
  %127 = fmul nsz float %124, %126
  %128 = load i32, ptr %15, align 4, !tbaa !41
  %129 = load i32, ptr %14, align 4, !tbaa !41
  %130 = sub nsw i32 %128, %129
  %131 = load i32, ptr %12, align 4, !tbaa !41
  %132 = mul nsw i32 %130, %131
  %133 = sitofp i32 %132 to float
  %134 = fdiv nsz float %127, %133
  %135 = fsub nsz float %134, 5.000000e-01
  %136 = load ptr, ptr %9, align 8, !tbaa !22
  %137 = getelementptr inbounds nuw %struct.ColorCorrectContext, ptr %136, i32 0, i32 16
  %138 = load ptr, ptr %137, align 8, !tbaa !44
  %139 = load i32, ptr %7, align 4, !tbaa !41
  %140 = sext i32 %139 to i64
  %141 = getelementptr inbounds [4 x float], ptr %138, i64 %140
  %142 = getelementptr inbounds [4 x float], ptr %141, i64 0, i64 2
  store float %135, ptr %142, align 4, !tbaa !42
  %143 = load ptr, ptr %9, align 8, !tbaa !22
  %144 = getelementptr inbounds nuw %struct.ColorCorrectContext, ptr %143, i32 0, i32 16
  %145 = load ptr, ptr %144, align 8, !tbaa !44
  %146 = load i32, ptr %7, align 4, !tbaa !41
  %147 = sext i32 %146 to i64
  %148 = getelementptr inbounds [4 x float], ptr %145, i64 %147
  %149 = getelementptr inbounds [4 x float], ptr %148, i64 0, i64 0
  store float %135, ptr %149, align 4, !tbaa !42
  %150 = load float, ptr %11, align 4, !tbaa !42
  %151 = load i64, ptr %21, align 8, !tbaa !72
  %152 = sitofp i64 %151 to float
  %153 = fmul nsz float %150, %152
  %154 = load i32, ptr %15, align 4, !tbaa !41
  %155 = load i32, ptr %14, align 4, !tbaa !41
  %156 = sub nsw i32 %154, %155
  %157 = load i32, ptr %12, align 4, !tbaa !41
  %158 = mul nsw i32 %156, %157
  %159 = sitofp i32 %158 to float
  %160 = fdiv nsz float %153, %159
  %161 = fsub nsz float %160, 5.000000e-01
  %162 = load ptr, ptr %9, align 8, !tbaa !22
  %163 = getelementptr inbounds nuw %struct.ColorCorrectContext, ptr %162, i32 0, i32 16
  %164 = load ptr, ptr %163, align 8, !tbaa !44
  %165 = load i32, ptr %7, align 4, !tbaa !41
  %166 = sext i32 %165 to i64
  %167 = getelementptr inbounds [4 x float], ptr %164, i64 %166
  %168 = getelementptr inbounds [4 x float], ptr %167, i64 0, i64 3
  store float %161, ptr %168, align 4, !tbaa !42
  %169 = load ptr, ptr %9, align 8, !tbaa !22
  %170 = getelementptr inbounds nuw %struct.ColorCorrectContext, ptr %169, i32 0, i32 16
  %171 = load ptr, ptr %170, align 8, !tbaa !44
  %172 = load i32, ptr %7, align 4, !tbaa !41
  %173 = sext i32 %172 to i64
  %174 = getelementptr inbounds [4 x float], ptr %171, i64 %173
  %175 = getelementptr inbounds [4 x float], ptr %174, i64 0, i64 1
  store float %161, ptr %175, align 4, !tbaa !42
  store i32 1, ptr %23, align 4
  call void @llvm.lifetime.end.p0(i64 8, ptr %21) #9
  call void @llvm.lifetime.end.p0(i64 8, ptr %20) #9
  call void @llvm.lifetime.end.p0(i64 8, ptr %19) #9
  call void @llvm.lifetime.end.p0(i64 8, ptr %18) #9
  call void @llvm.lifetime.end.p0(i64 8, ptr %17) #9
  call void @llvm.lifetime.end.p0(i64 8, ptr %16) #9
  call void @llvm.lifetime.end.p0(i64 4, ptr %15) #9
  call void @llvm.lifetime.end.p0(i64 4, ptr %14) #9
  call void @llvm.lifetime.end.p0(i64 4, ptr %13) #9
  call void @llvm.lifetime.end.p0(i64 4, ptr %12) #9
  call void @llvm.lifetime.end.p0(i64 4, ptr %11) #9
  call void @llvm.lifetime.end.p0(i64 8, ptr %10) #9
  call void @llvm.lifetime.end.p0(i64 8, ptr %9) #9
  ret i32 0
}