; Function Attrs: nofree norecurse nosync nounwind memory(readwrite, inaccessiblemem: none) uwtable
define internal noundef i32 @average_slice16(ptr noundef readonly captures(none) %0, ptr noundef readonly captures(none) %1, i32 noundef %2, i32 noundef %3) #4 {
  %5 = getelementptr inbounds nuw i8, ptr %0, i64 72
  %6 = load ptr, ptr %5, align 8, !tbaa !4
  %7 = getelementptr inbounds nuw i8, ptr %6, i64 40
  %8 = load float, ptr %7, align 8, !tbaa !53
  %9 = getelementptr inbounds nuw i8, ptr %6, i64 72
  %10 = load i32, ptr %9, align 4, !tbaa !35
  %11 = getelementptr inbounds nuw i8, ptr %6, i64 56
  %12 = load i32, ptr %11, align 4, !tbaa !35
  %13 = mul nsw i32 %12, %2
  %14 = sdiv i32 %13, %3
  %15 = add nsw i32 %2, 1
  %16 = mul nsw i32 %12, %15
  %17 = sdiv i32 %16, %3
  %18 = getelementptr inbounds nuw i8, ptr %1, i64 68
  %19 = load i32, ptr %18, align 4, !tbaa !35
  %20 = sdiv i32 %19, 2
  %21 = sext i32 %20 to i64
  %22 = getelementptr inbounds nuw i8, ptr %1, i64 72
  %23 = load i32, ptr %22, align 8, !tbaa !35
  %24 = sdiv i32 %23, 2
  %25 = sext i32 %24 to i64
  %26 = icmp slt i32 %14, %17
  %27 = icmp sgt i32 %10, 0
  %or.cond = select i1 %26, i1 %27, i1 false
  br i1 %or.cond, label %.preheader.us.preheader, label %._crit_edge69

.preheader.us.preheader:                          ; preds = %4
  %28 = getelementptr inbounds nuw i8, ptr %1, i64 8
  %29 = load ptr, ptr %28, align 8, !tbaa !65
  %30 = sext i32 %14 to i64
  %31 = mul nsw i64 %21, %30
  %32 = getelementptr inbounds i16, ptr %29, i64 %31
  %33 = getelementptr inbounds nuw i8, ptr %1, i64 16
  %34 = load ptr, ptr %33, align 8, !tbaa !65
  %35 = mul nsw i64 %25, %30
  %36 = getelementptr inbounds i16, ptr %34, i64 %35
  %wide.trip.count = zext nneg i32 %10 to i64
  br label %.preheader.us

.preheader.us:                                    ; preds = %.preheader.us.preheader, %._crit_edge.us
  %.05368.us = phi i32 [ %48, %._crit_edge.us ], [ %14, %.preheader.us.preheader ]
  %.05467.us = phi i64 [ %45, %._crit_edge.us ], [ 0, %.preheader.us.preheader ]
  %.05566.us = phi i64 [ %41, %._crit_edge.us ], [ 0, %.preheader.us.preheader ]
  %.05765.us = phi ptr [ %47, %._crit_edge.us ], [ %36, %.preheader.us.preheader ]
  %.05864.us = phi ptr [ %46, %._crit_edge.us ], [ %32, %.preheader.us.preheader ]
  br label %37

37:                                               ; preds = %.preheader.us, %37
  %indvars.iv = phi i64 [ 0, %.preheader.us ], [ %indvars.iv.next, %37 ]
  %.161.us = phi i64 [ %.05467.us, %.preheader.us ], [ %45, %37 ]
  %.15660.us = phi i64 [ %.05566.us, %.preheader.us ], [ %41, %37 ]
  %38 = getelementptr inbounds nuw i16, ptr %.05864.us, i64 %indvars.iv
  %39 = load i16, ptr %38, align 2, !tbaa !69
  %40 = zext i16 %39 to i64
  %41 = add nsw i64 %.15660.us, %40
  %42 = getelementptr inbounds nuw i16, ptr %.05765.us, i64 %indvars.iv
  %43 = load i16, ptr %42, align 2, !tbaa !69
  %44 = zext i16 %43 to i64
  %45 = add nsw i64 %.161.us, %44
  %indvars.iv.next = add nuw nsw i64 %indvars.iv, 1
  %exitcond.not = icmp eq i64 %indvars.iv.next, %wide.trip.count
  br i1 %exitcond.not, label %._crit_edge.us, label %37, !llvm.loop !75

._crit_edge.us:                                   ; preds = %37
  %46 = getelementptr inbounds i16, ptr %.05864.us, i64 %21
  %47 = getelementptr inbounds i16, ptr %.05765.us, i64 %25
  %48 = add nsw i32 %.05368.us, 1
  %exitcond76.not = icmp eq i32 %48, %17
  br i1 %exitcond76.not, label %._crit_edge69.loopexit, label %.preheader.us, !llvm.loop !76

._crit_edge69.loopexit:                           ; preds = %._crit_edge.us
  %49 = sitofp i64 %41 to float
  %50 = sitofp i64 %45 to float
  br label %._crit_edge69

._crit_edge69:                                    ; preds = %._crit_edge69.loopexit, %4
  %.055.lcssa = phi float [ 0.000000e+00, %4 ], [ %49, %._crit_edge69.loopexit ]
  %.054.lcssa = phi float [ 0.000000e+00, %4 ], [ %50, %._crit_edge69.loopexit ]
  %51 = fmul nsz float %8, %.055.lcssa
  %52 = sub nsw i32 %17, %14
  %53 = mul nsw i32 %52, %10
  %54 = sitofp i32 %53 to float
  %55 = fdiv nsz float %51, %54
  %56 = fadd nsz float %55, -5.000000e-01
  %57 = getelementptr inbounds nuw i8, ptr %6, i64 104
  %58 = load ptr, ptr %57, align 8, !tbaa !36
  %59 = sext i32 %2 to i64
  %60 = getelementptr inbounds [4 x float], ptr %58, i64 %59, i64 2
  store float %56, ptr %60, align 4, !tbaa !41
  %61 = getelementptr inbounds [4 x float], ptr %58, i64 %59
  store float %56, ptr %61, align 4, !tbaa !41
  %62 = fmul nsz float %8, %.054.lcssa
  %63 = fdiv nsz float %62, %54
  %64 = fadd nsz float %63, -5.000000e-01
  %65 = getelementptr inbounds [4 x float], ptr %58, i64 %59, i64 3
  store float %64, ptr %65, align 4, !tbaa !41
  %66 = getelementptr inbounds [4 x float], ptr %58, i64 %59, i64 1
  store float %64, ptr %66, align 4, !tbaa !41
  ret i32 0
}